target datalayout = "e-m:e-p270:32:32-p271:32:32-p272:64:64-i64:64-i128:128-f80:128-n8:16:32:64-S128"
target triple = "x86_64-pc-linux-gnu"

%class.b3QuantizedBvh = type <{ ptr, [8 x i8], %class.b3Vector3, %class.b3Vector3, %class.b3Vector3, i32, i32, i8, [7 x i8], %class.b3AlignedObjectArray, %class.b3AlignedObjectArray, %class.b3AlignedObjectArray.0, %class.b3AlignedObjectArray.0, i32, [4 x i8], %class.b3AlignedObjectArray.2, i32, [4 x i8] }>
%class.b3Vector3 = type { %union.anon }
%union.anon = type { [4 x float] }
%class.b3AlignedObjectArray = type <{ [4 x i8], i32, i32, [4 x i8], ptr, i8, [7 x i8] }>
%class.b3AlignedObjectArray.0 = type <{ [4 x i8], i32, i32, [4 x i8], ptr, i8, [7 x i8] }>
%class.b3AlignedObjectArray.2 = type <{ [4 x i8], i32, i32, [4 x i8], ptr, i8, [7 x i8] }>
%struct.b3OptimizedBvhNode = type { %class.b3Vector3, %class.b3Vector3, i32, i32, i32, [20 x i8] }

@_ZL17b3s_maxIterations = internal global i32 0, align 4

; Function Attrs: inlinehint mustprogress nounwind uwtable
define linkonce_odr dso_local noundef nonnull align 4 dereferenceable(4) ptr @_ZNK9b3Vector34getYEv(ptr noundef nonnull align 16 dereferenceable(16) %0) #1 comdat align 2 {
  %2 = alloca ptr, align 8
  store ptr %0, ptr %2, align 8, !tbaa !37
  %3 = load ptr, ptr %2, align 8
  %4 = getelementptr inbounds nuw %class.b3Vector3, ptr %3, i32 0, i32 0
  %5 = getelementptr inbounds [4 x float], ptr %4, i64 0, i64 1
  ret ptr %5
}

; Function Attrs: inlinehint mustprogress nounwind uwtable
define linkonce_odr dso_local noundef nonnull align 4 dereferenceable(4) ptr @_ZNK9b3Vector34getZEv(ptr noundef nonnull align 16 dereferenceable(16) %0) #1 comdat align 2 {
  %2 = alloca ptr, align 8
  store ptr %0, ptr %2, align 8, !tbaa !37
  %3 = load ptr, ptr %2, align 8
  %4 = getelementptr inbounds nuw %class.b3Vector3, ptr %3, i32 0, i32 0
  %5 = getelementptr inbounds [4 x float], ptr %4, i64 0, i64 2
  ret ptr %5
}

; Function Attrs: inlinehint mustprogress nounwind uwtable
define linkonce_odr dso_local noundef nonnull align 4 dereferenceable(4) ptr @_ZNK9b3Vector34getXEv(ptr noundef nonnull align 16 dereferenceable(16) %0) #1 comdat align 2 {
  %2 = alloca ptr, align 8
  store ptr %0, ptr %2, align 8, !tbaa !37
  %3 = load ptr, ptr %2, align 8
  %4 = getelementptr inbounds nuw %class.b3Vector3, ptr %3, i32 0, i32 0
  %5 = getelementptr inbounds [4 x float], ptr %4, i64 0, i64 0
  ret ptr %5
}

; Function Attrs: inlinehint mustprogress nounwind uwtable
define linkonce_odr dso_local noundef zeroext i1 @_Z22b3TestAabbAgainstAabb2RK9b3Vector3S1_S1_S1_(ptr noundef nonnull align 16 dereferenceable(16) %0, ptr noundef nonnull align 16 dereferenceable(16) %1, ptr noundef nonnull align 16 dereferenceable(16) %2, ptr noundef nonnull align 16 dereferenceable(16) %3) #1 comdat {
  %5 = alloca ptr, align 8
  %6 = alloca ptr, align 8
  %7 = alloca ptr, align 8
  %8 = alloca ptr, align 8
  %9 = alloca i8, align 1
  store ptr %0, ptr %5, align 8, !tbaa !37
  store ptr %1, ptr %6, align 8, !tbaa !37
  store ptr %2, ptr %7, align 8, !tbaa !37
  store ptr %3, ptr %8, align 8, !tbaa !37
  call void @llvm.lifetime.start.p0(i64 1, ptr %9) #14
  store i8 1, ptr %9, align 1, !tbaa !70
  %10 = load ptr, ptr %5, align 8, !tbaa !37
  %11 = call noundef nonnull align 4 dereferenceable(4) ptr @_ZNK9b3Vector34getXEv(ptr noundef nonnull align 16 dereferenceable(16) %10)
  %12 = load float, ptr %11, align 4, !tbaa !29
  %13 = load ptr, ptr %8, align 8, !tbaa !37
  %14 = call noundef nonnull align 4 dereferenceable(4) ptr @_ZNK9b3Vector34getXEv(ptr noundef nonnull align 16 dereferenceable(16) %13)
  %15 = load float, ptr %14, align 4, !tbaa !29
  %16 = fcmp ogt float %12, %15
  br i1 %16, label %25, label %17

17:                                               ; preds = %4
  %18 = load ptr, ptr %6, align 8, !tbaa !37
  %19 = call noundef nonnull align 4 dereferenceable(4) ptr @_ZNK9b3Vector34getXEv(ptr noundef nonnull align 16 dereferenceable(16) %18)
  %20 = load float, ptr %19, align 4, !tbaa !29
  %21 = load ptr, ptr %7, align 8, !tbaa !37
  %22 = call noundef nonnull align 4 dereferenceable(4) ptr @_ZNK9b3Vector34getXEv(ptr noundef nonnull align 16 dereferenceable(16) %21)
  %23 = load float, ptr %22, align 4, !tbaa !29
  %24 = fcmp olt float %20, %23
  br i1 %24, label %25, label %26

25:                                               ; preds = %17, %4
  br label %29

26:                                               ; preds = %17
  %27 = load i8, ptr %9, align 1, !tbaa !70, !range !43, !noundef !44
  %28 = trunc i8 %27 to i1
  br label %29

29:                                               ; preds = %26, %25
  %30 = phi i1 [ false, %25 ], [ %28, %26 ]
  %31 = zext i1 %30 to i8
  store i8 %31, ptr %9, align 1, !tbaa !70
  %32 = load ptr, ptr %5, align 8, !tbaa !37
  %33 = call noundef nonnull align 4 dereferenceable(4) ptr @_ZNK9b3Vector34getZEv(ptr noundef nonnull align 16 dereferenceable(16) %32)
  %34 = load float, ptr %33, align 4, !tbaa !29
  %35 = load ptr, ptr %8, align 8, !tbaa !37
  %36 = call noundef nonnull align 4 dereferenceable(4) ptr @_ZNK9b3Vector34getZEv(ptr noundef nonnull align 16 dereferenceable(16) %35)
  %37 = load float, ptr %36, align 4, !tbaa !29
  %38 = fcmp ogt float %34, %37
  br i1 %38, label %47, label %39

39:                                               ; preds = %29
  %40 = load ptr, ptr %6, align 8, !tbaa !37
  %41 = call noundef nonnull align 4 dereferenceable(4) ptr @_ZNK9b3Vector34getZEv(ptr noundef nonnull align 16 dereferenceable(16) %40)
  %42 = load float, ptr %41, align 4, !tbaa !29
  %43 = load ptr, ptr %7, align 8, !tbaa !37
  %44 = call noundef nonnull align 4 dereferenceable(4) ptr @_ZNK9b3Vector34getZEv(ptr noundef nonnull align 16 dereferenceable(16) %43)
  %45 = load float, ptr %44, align 4, !tbaa !29
  %46 = fcmp olt float %42, %45
  br i1 %46, label %47, label %48

47:                                               ; preds = %39, %29
  br label %51

48:                                               ; preds = %39
  %49 = load i8, ptr %9, align 1, !tbaa !70, !range !43, !noundef !44
  %50 = trunc i8 %49 to i1
  br label %51

51:                                               ; preds = %48, %47
  %52 = phi i1 [ false, %47 ], [ %50, %48 ]
  %53 = zext i1 %52 to i8
  store i8 %53, ptr %9, align 1, !tbaa !70
  %54 = load ptr, ptr %5, align 8, !tbaa !37
  %55 = call noundef nonnull align 4 dereferenceable(4) ptr @_ZNK9b3Vector34getYEv(ptr noundef nonnull align 16 dereferenceable(16) %54)
  %56 = load float, ptr %55, align 4, !tbaa !29
  %57 = load ptr, ptr %8, align 8, !tbaa !37
  %58 = call noundef nonnull align 4 dereferenceable(4) ptr @_ZNK9b3Vector34getYEv(ptr noundef nonnull align 16 dereferenceable(16) %57)
  %59 = load float, ptr %58, align 4, !tbaa !29
  %60 = fcmp ogt float %56, %59
  br i1 %60, label %69, label %61

61:                                               ; preds = %51
  %62 = load ptr, ptr %6, align 8, !tbaa !37
  %63 = call noundef nonnull align 4 dereferenceable(4) ptr @_ZNK9b3Vector34getYEv(ptr noundef nonnull align 16 dereferenceable(16) %62)
  %64 = load float, ptr %63, align 4, !tbaa !29
  %65 = load ptr, ptr %7, align 8, !tbaa !37
  %66 = call noundef nonnull align 4 dereferenceable(4) ptr @_ZNK9b3Vector34getYEv(ptr noundef nonnull align 16 dereferenceable(16) %65)
  %67 = load float, ptr %66, align 4, !tbaa !29
  %68 = fcmp olt float %64, %67
  br i1 %68, label %69, label %70

69:                                               ; preds = %61, %51
  br label %73

70:                                               ; preds = %61
  %71 = load i8, ptr %9, align 1, !tbaa !70, !range !43, !noundef !44
  %72 = trunc i8 %71 to i1
  br label %73

73:                                               ; preds = %70, %69
  %74 = phi i1 [ false, %69 ], [ %72, %70 ]
  %75 = zext i1 %74 to i8
  store i8 %75, ptr %9, align 1, !tbaa !70
  %76 = load i8, ptr %9, align 1, !tbaa !70, !range !43, !noundef !44
  %77 = trunc i8 %76 to i1
  call void @llvm.lifetime.end.p0(i64 1, ptr %9) #14
  ret i1 %77
}

; Function Attrs: inlinehint mustprogress nounwind uwtable
define linkonce_odr dso_local noundef nonnull align 16 dereferenceable(64) ptr @_ZNK20b3AlignedObjectArrayI18b3OptimizedBvhNodeEixEi(ptr noundef nonnull align 8 dereferenceable(25) %0, i32 noundef %1) #1 comdat align 2 {
  %3 = alloca ptr, align 8
  %4 = alloca i32, align 4
  store ptr %0, ptr %3, align 8, !tbaa !31
  store i32 %1, ptr %4, align 4, !tbaa !42
  %5 = load ptr, ptr %3, align 8
  %6 = getelementptr inbounds nuw %class.b3AlignedObjectArray, ptr %5, i32 0, i32 4
  %7 = load ptr, ptr %6, align 8, !tbaa !84
  %8 = load i32, ptr %4, align 4, !tbaa !42
  %9 = sext i32 %8 to i64
  %10 = getelementptr inbounds %struct.b3OptimizedBvhNode, ptr %7, i64 %9
  ret ptr %10
}

; Function Attrs: mustprogress uwtable
define dso_local void @_ZNK14b3QuantizedBvh17walkStacklessTreeEP21b3NodeOverlapCallbackRK9b3Vector3S4_(ptr noundef nonnull align 16 dereferenceable(252) %0, ptr noundef %1, ptr noundef nonnull align 16 dereferenceable(16) %2, ptr noundef nonnull align 16 dereferenceable(16) %3) #0 align 2 {
  %5 = alloca ptr, align 8
  %6 = alloca ptr, align 8
  %7 = alloca ptr, align 8
  %8 = alloca ptr, align 8
  %9 = alloca ptr, align 8
  %10 = alloca i32, align 4
  %11 = alloca i32, align 4
  %12 = alloca i32, align 4
  %13 = alloca i8, align 1
  %14 = alloca i32, align 4
  store ptr %0, ptr %5, align 8, !tbaa !4
  store ptr %1, ptr %6, align 8, !tbaa !74
  store ptr %2, ptr %7, align 8, !tbaa !37
  store ptr %3, ptr %8, align 8, !tbaa !37
  %15 = load ptr, ptr %5, align 8
  call void @llvm.lifetime.start.p0(i64 8, ptr %9) #14
  %16 = getelementptr inbounds nuw %class.b3QuantizedBvh, ptr %15, i32 0, i32 10
  %17 = call noundef nonnull align 16 dereferenceable(64) ptr @_ZNK20b3AlignedObjectArrayI18b3OptimizedBvhNodeEixEi(ptr noundef nonnull align 8 dereferenceable(25) %16, i32 noundef 0)
  store ptr %17, ptr %9, align 8, !tbaa !80
  call void @llvm.lifetime.start.p0(i64 4, ptr %10) #14
  call void @llvm.lifetime.start.p0(i64 4, ptr %11) #14
  store i32 0, ptr %11, align 4, !tbaa !42
  call void @llvm.lifetime.start.p0(i64 4, ptr %12) #14
  store i32 0, ptr %12, align 4, !tbaa !42
  call void @llvm.lifetime.start.p0(i64 1, ptr %13) #14
  call void @llvm.lifetime.start.p0(i64 4, ptr %14) #14
  br label %18

18:                                               ; preds = %77, %4
  %19 = load i32, ptr %11, align 4, !tbaa !42
  %20 = getelementptr inbounds nuw %class.b3QuantizedBvh, ptr %15, i32 0, i32 6
  %21 = load i32, ptr %20, align 4, !tbaa !45
  %22 = icmp slt i32 %19, %21
  br i1 %22, label %23, label %78

23:                                               ; preds = %18
  %24 = load i32, ptr %12, align 4, !tbaa !42
  %25 = add nsw i32 %24, 1
  store i32 %25, ptr %12, align 4, !tbaa !42
  %26 = load ptr, ptr %7, align 8, !tbaa !37
  %27 = load ptr, ptr %8, align 8, !tbaa !37
  %28 = load ptr, ptr %9, align 8, !tbaa !80
  %29 = getelementptr inbounds nuw %struct.b3OptimizedBvhNode, ptr %28, i32 0, i32 0
  %30 = load ptr, ptr %9, align 8, !tbaa !80
  %31 = getelementptr inbounds nuw %struct.b3OptimizedBvhNode, ptr %30, i32 0, i32 1
  %32 = call noundef zeroext i1 @_Z22b3TestAabbAgainstAabb2RK9b3Vector3S1_S1_S1_(ptr noundef nonnull align 16 dereferenceable(16) %26, ptr noundef nonnull align 16 dereferenceable(16) %27, ptr noundef nonnull align 16 dereferenceable(16) %29, ptr noundef nonnull align 16 dereferenceable(16) %31)
  %33 = zext i1 %32 to i32
  store i32 %33, ptr %14, align 4, !tbaa !42
  %34 = load ptr, ptr %9, align 8, !tbaa !80
  %35 = getelementptr inbounds nuw %struct.b3OptimizedBvhNode, ptr %34, i32 0, i32 2
  %36 = load i32, ptr %35, align 16, !tbaa !72
  %37 = icmp eq i32 %36, -1
  %38 = zext i1 %37 to i8
  store i8 %38, ptr %13, align 1, !tbaa !70
  %39 = load i8, ptr %13, align 1, !tbaa !70, !range !43, !noundef !44
  %40 = trunc i8 %39 to i1
  br i1 %40, label %41, label %55

41:                                               ; preds = %23
  %42 = load i32, ptr %14, align 4, !tbaa !42
  %43 = icmp ne i32 %42, 0
  br i1 %43, label %44, label %55

44:                                               ; preds = %41
  %45 = load ptr, ptr %6, align 8, !tbaa !74
  %46 = load ptr, ptr %9, align 8, !tbaa !80
  %47 = getelementptr inbounds nuw %struct.b3OptimizedBvhNode, ptr %46, i32 0, i32 3
  %48 = load i32, ptr %47, align 4, !tbaa !81
  %49 = load ptr, ptr %9, align 8, !tbaa !80
  %50 = getelementptr inbounds nuw %struct.b3OptimizedBvhNode, ptr %49, i32 0, i32 4
  %51 = load i32, ptr %50, align 8, !tbaa !82
  %52 = load ptr, ptr %45, align 8, !tbaa !9
  %53 = getelementptr inbounds ptr, ptr %52, i64 2
  %54 = load ptr, ptr %53, align 8
  call void %54(ptr noundef nonnull align 8 dereferenceable(8) %45, i32 noundef %48, i32 noundef %51)
  br label %55

55:                                               ; preds = %44, %41, %23
  %56 = load i32, ptr %14, align 4, !tbaa !42
  %57 = icmp ne i32 %56, 0
  br i1 %57, label %61, label %58

58:                                               ; preds = %55
  %59 = load i8, ptr %13, align 1, !tbaa !70, !range !43, !noundef !44
  %60 = trunc i8 %59 to i1
  br i1 %60, label %61, label %66

61:                                               ; preds = %58, %55
  %62 = load ptr, ptr %9, align 8, !tbaa !80
  %63 = getelementptr inbounds nuw %struct.b3OptimizedBvhNode, ptr %62, i32 1
  store ptr %63, ptr %9, align 8, !tbaa !80
  %64 = load i32, ptr %11, align 4, !tbaa !42
  %65 = add nsw i32 %64, 1
  store i32 %65, ptr %11, align 4, !tbaa !42
  br label %77

66:                                               ; preds = %58
  %67 = load ptr, ptr %9, align 8, !tbaa !80
  %68 = getelementptr inbounds nuw %struct.b3OptimizedBvhNode, ptr %67, i32 0, i32 2
  %69 = load i32, ptr %68, align 16, !tbaa !72
  store i32 %69, ptr %10, align 4, !tbaa !42
  %70 = load i32, ptr %10, align 4, !tbaa !42
  %71 = load ptr, ptr %9, align 8, !tbaa !80
  %72 = sext i32 %70 to i64
  %73 = getelementptr inbounds %struct.b3OptimizedBvhNode, ptr %71, i64 %72
  store ptr %73, ptr %9, align 8, !tbaa !80
  %74 = load i32, ptr %10, align 4, !tbaa !42
  %75 = load i32, ptr %11, align 4, !tbaa !42
  %76 = add nsw i32 %75, %74
  store i32 %76, ptr %11, align 4, !tbaa !42
  br label %77

77:                                               ; preds = %66, %61
  br label %18, !llvm.loop !83

78:                                               ; preds = %18
  %79 = load i32, ptr @_ZL17b3s_maxIterations, align 4, !tbaa !42
  %80 = load i32, ptr %12, align 4, !tbaa !42
  %81 = icmp slt i32 %79, %80
  br i1 %81, label %82, label %84

82:                                               ; preds = %78
  %83 = load i32, ptr %12, align 4, !tbaa !42
  store i32 %83, ptr @_ZL17b3s_maxIterations, align 4, !tbaa !42
  br label %84

84:                                               ; preds = %82, %78
  call void @llvm.lifetime.end.p0(i64 4, ptr %14) #14
  call void @llvm.lifetime.end.p0(i64 1, ptr %13) #14
  call void @llvm.lifetime.end.p0(i64 4, ptr %12) #14
  call void @llvm.lifetime.end.p0(i64 4, ptr %11) #14
  call void @llvm.lifetime.end.p0(i64 4, ptr %10) #14
  call void @llvm.lifetime.end.p0(i64 8, ptr %9) #14
  ret void
}