; Function Attrs: mustprogress uwtable
define dso_local void @_ZNK14b3QuantizedBvh17walkStacklessTreeEP21b3NodeOverlapCallbackRK9b3Vector3S4_(ptr noundef nonnull readonly align 16 captures(none) dereferenceable(252) %0, ptr noundef %1, ptr noundef nonnull readonly align 16 captures(none) dereferenceable(16) %2, ptr noundef nonnull readonly align 16 captures(none) dereferenceable(16) %3) local_unnamed_addr #2 align 2 {
  %5 = getelementptr inbounds nuw i8, ptr %0, i64 68
  %6 = load i32, ptr %5, align 4, !tbaa !45
  %7 = icmp sgt i32 %6, 0
  br i1 %7, label %.lr.ph, label %._crit_edge

.lr.ph:                                           ; preds = %4
  %8 = getelementptr inbounds nuw i8, ptr %0, i64 128
  %9 = load ptr, ptr %8, align 16, !tbaa !26
  %10 = getelementptr inbounds nuw i8, ptr %2, i64 8
  %11 = getelementptr inbounds nuw i8, ptr %3, i64 8
  %12 = getelementptr inbounds nuw i8, ptr %2, i64 4
  %13 = getelementptr inbounds nuw i8, ptr %3, i64 4
  br label %14

14:                                               ; preds = %.lr.ph, %73
  %.030 = phi ptr [ %9, %.lr.ph ], [ %.1, %73 ]
  %.02429 = phi i32 [ 0, %.lr.ph ], [ %.125, %73 ]
  %.02628 = phi i32 [ 0, %.lr.ph ], [ %15, %73 ]
  %15 = add nuw nsw i32 %.02628, 1
  %16 = getelementptr inbounds nuw i8, ptr %.030, i64 16
  %17 = load float, ptr %2, align 16, !tbaa !56
  %18 = load float, ptr %16, align 4, !tbaa !56
  %19 = fcmp ogt float %17, %18
  br i1 %19, label %25, label %20

20:                                               ; preds = %14
  %21 = load float, ptr %3, align 16, !tbaa !56
  %22 = load float, ptr %.030, align 4, !tbaa !56
  %23 = fcmp olt float %21, %22
  br i1 %23, label %25, label %24

24:                                               ; preds = %20
  br label %25

25:                                               ; preds = %24, %20, %14
  %26 = phi i1 [ true, %24 ], [ false, %20 ], [ false, %14 ]
  %27 = load float, ptr %10, align 8, !tbaa !56
  %28 = getelementptr inbounds nuw i8, ptr %.030, i64 24
  %29 = load float, ptr %28, align 4, !tbaa !56
  %30 = fcmp ogt float %27, %29
  br i1 %30, label %37, label %31

31:                                               ; preds = %25
  %32 = load float, ptr %11, align 8, !tbaa !56
  %33 = getelementptr inbounds nuw i8, ptr %.030, i64 8
  %34 = load float, ptr %33, align 4, !tbaa !56
  %35 = fcmp olt float %32, %34
  br i1 %35, label %37, label %36

36:                                               ; preds = %31
  br label %37

37:                                               ; preds = %36, %31, %25
  %38 = phi i1 [ %26, %36 ], [ false, %31 ], [ false, %25 ]
  %39 = load float, ptr %12, align 4, !tbaa !56
  %40 = getelementptr inbounds nuw i8, ptr %.030, i64 20
  %41 = load float, ptr %40, align 4, !tbaa !56
  %42 = fcmp ogt float %39, %41
  br i1 %42, label %_Z22b3TestAabbAgainstAabb2RK9b3Vector3S1_S1_S1_.exit.thread, label %43

43:                                               ; preds = %37
  %44 = load float, ptr %13, align 4, !tbaa !56
  %45 = getelementptr inbounds nuw i8, ptr %.030, i64 4
  %46 = load float, ptr %45, align 4, !tbaa !56
  %47 = fcmp olt float %44, %46
  br i1 %47, label %_Z22b3TestAabbAgainstAabb2RK9b3Vector3S1_S1_S1_.exit.thread, label %_Z22b3TestAabbAgainstAabb2RK9b3Vector3S1_S1_S1_.exit

_Z22b3TestAabbAgainstAabb2RK9b3Vector3S1_S1_S1_.exit.thread: ; preds = %43, %37
  %48 = getelementptr inbounds nuw i8, ptr %.030, i64 32
  %49 = load i32, ptr %48, align 16, !tbaa !59
  %50 = icmp eq i32 %49, -1
  br label %61

_Z22b3TestAabbAgainstAabb2RK9b3Vector3S1_S1_S1_.exit: ; preds = %43
  %51 = getelementptr inbounds nuw i8, ptr %.030, i64 32
  %52 = load i32, ptr %51, align 16, !tbaa !59
  %53 = icmp eq i32 %52, -1
  %or.cond = and i1 %38, %53
  br i1 %or.cond, label %.thread, label %61

.thread:                                          ; preds = %_Z22b3TestAabbAgainstAabb2RK9b3Vector3S1_S1_S1_.exit
  %54 = getelementptr inbounds nuw i8, ptr %.030, i64 36
  %55 = load i32, ptr %54, align 4, !tbaa !68
  %56 = getelementptr inbounds nuw i8, ptr %.030, i64 40
  %57 = load i32, ptr %56, align 8, !tbaa !69
  %58 = load ptr, ptr %1, align 8, !tbaa !4
  %59 = getelementptr inbounds nuw i8, ptr %58, i64 16
  %60 = load ptr, ptr %59, align 8
  tail call void %60(ptr noundef nonnull align 8 dereferenceable(8) %1, i32 noundef %55, i32 noundef %57)
  br label %65

61:                                               ; preds = %_Z22b3TestAabbAgainstAabb2RK9b3Vector3S1_S1_S1_.exit.thread, %_Z22b3TestAabbAgainstAabb2RK9b3Vector3S1_S1_S1_.exit
  %62 = phi i1 [ %50, %_Z22b3TestAabbAgainstAabb2RK9b3Vector3S1_S1_S1_.exit.thread ], [ %53, %_Z22b3TestAabbAgainstAabb2RK9b3Vector3S1_S1_S1_.exit ]
  %63 = phi ptr [ %48, %_Z22b3TestAabbAgainstAabb2RK9b3Vector3S1_S1_S1_.exit.thread ], [ %51, %_Z22b3TestAabbAgainstAabb2RK9b3Vector3S1_S1_S1_.exit ]
  %64 = phi i1 [ false, %_Z22b3TestAabbAgainstAabb2RK9b3Vector3S1_S1_S1_.exit.thread ], [ %38, %_Z22b3TestAabbAgainstAabb2RK9b3Vector3S1_S1_S1_.exit ]
  %brmerge = or i1 %62, %64
  br i1 %brmerge, label %65, label %68

65:                                               ; preds = %.thread, %61
  %66 = getelementptr inbounds nuw i8, ptr %.030, i64 64
  %67 = add nsw i32 %.02429, 1
  br label %73

68:                                               ; preds = %61
  %69 = load i32, ptr %63, align 16, !tbaa !59
  %70 = sext i32 %69 to i64
  %71 = getelementptr inbounds %struct.b3OptimizedBvhNode, ptr %.030, i64 %70
  %72 = add nsw i32 %69, %.02429
  br label %73

73:                                               ; preds = %68, %65
  %.125 = phi i32 [ %67, %65 ], [ %72, %68 ]
  %.1 = phi ptr [ %66, %65 ], [ %71, %68 ]
  %74 = load i32, ptr %5, align 4, !tbaa !45
  %75 = icmp slt i32 %.125, %74
  br i1 %75, label %14, label %._crit_edge, !llvm.loop !70

._crit_edge:                                      ; preds = %73, %4
  %.026.lcssa = phi i32 [ 0, %4 ], [ %15, %73 ]
  %76 = load i32, ptr @_ZL17b3s_maxIterations, align 4, !tbaa !54
  %77 = icmp slt i32 %76, %.026.lcssa
  br i1 %77, label %78, label %79

78:                                               ; preds = %._crit_edge
  store i32 %.026.lcssa, ptr @_ZL17b3s_maxIterations, align 4, !tbaa !54
  br label %79

79:                                               ; preds = %78, %._crit_edge
  ret void
}